; Function Attrs: nounwind uwtable
define dso_local ptr @get_attname(i32 noundef %0, i16 noundef signext %1, i1 noundef zeroext %2) local_unnamed_addr #0 {
  %4 = zext i32 %0 to i64
  %5 = sext i16 %1 to i64
  %6 = tail call ptr @SearchSysCache2(i32 noundef 7, i64 noundef %4, i64 noundef %5) #8
  %.not = icmp eq ptr %6, null
  br i1 %.not, label %15, label %7

7:                                                ; preds = %3
  %8 = getelementptr i8, ptr %6, i64 16
  %.val = load ptr, ptr %8, align 8
  %9 = getelementptr inbounds nuw i8, ptr %.val, i64 22
  %10 = load i8, ptr %9, align 2
  %11 = zext i8 %10 to i64
  %12 = getelementptr inbounds nuw i8, ptr %.val, i64 %11
  %13 = getelementptr inbounds nuw i8, ptr %12, i64 4
  %14 = tail call ptr @pstrdup(ptr noundef nonnull %13) #8
  tail call void @ReleaseSysCache(ptr noundef nonnull %6) #8
  br label %20

15:                                               ; preds = %3
  br i1 %2, label %20, label %16

16:                                               ; preds = %15
  %17 = tail call zeroext i1 @errstart_cold(i32 noundef 21, ptr noundef null) #9
  tail call void @llvm.assume(i1 %17)
  %18 = sext i16 %1 to i32
  %19 = tail call i32 (ptr, ...) @errmsg_internal(ptr noundef nonnull @.str.2, i32 noundef %18, i32 noundef %0) #8
  tail call void @errfinish(ptr noundef nonnull @.str.1, i32 noundef 846, ptr noundef nonnull @__func__.get_attname) #8
  unreachable

20:                                               ; preds = %15, %7
  %.0 = phi ptr [ %14, %7 ], [ null, %15 ]
  ret ptr %.0
}